; Function Attrs: mustprogress uwtable
define void @_ZN5arrow17LoggingMemoryPool4FreeEPhll(ptr noundef nonnull readonly align 8 captures(none) dereferenceable(16) %0, ptr noundef %1, i64 noundef %2, i64 noundef %3) unnamed_addr #4 align 2 {
  %5 = getelementptr inbounds nuw i8, ptr %0, i64 8
  %6 = load ptr, ptr %5, align 8, !tbaa !44
  %7 = load ptr, ptr %6, align 8, !tbaa !10
  %8 = getelementptr inbounds nuw i8, ptr %7, i64 32
  %9 = load ptr, ptr %8, align 8
  tail call void %9(ptr noundef nonnull align 8 dereferenceable(8) %6, ptr noundef %1, i64 noundef %2, i64 noundef %3)
  %10 = tail call noundef nonnull align 8 dereferenceable(8) ptr @_ZSt16__ostream_insertIcSt11char_traitsIcEERSt13basic_ostreamIT_T0_ES6_PKS3_l(ptr noundef nonnull align 8 dereferenceable(8) @_ZSt4cout, ptr noundef nonnull @.str.9, i64 noundef 13)
  %11 = tail call noundef nonnull align 8 dereferenceable(8) ptr @_ZNSo9_M_insertIlEERSoT_(ptr noundef nonnull align 8 dereferenceable(8) @_ZSt4cout, i64 noundef %2)
  %12 = tail call noundef nonnull align 8 dereferenceable(8) ptr @_ZSt16__ostream_insertIcSt11char_traitsIcEERSt13basic_ostreamIT_T0_ES6_PKS3_l(ptr noundef nonnull align 8 dereferenceable(8) %11, ptr noundef nonnull @.str.6, i64 noundef 14)
  %13 = tail call noundef nonnull align 8 dereferenceable(8) ptr @_ZNSo9_M_insertIlEERSoT_(ptr noundef nonnull align 8 dereferenceable(8) %11, i64 noundef %3)
  %14 = load ptr, ptr %13, align 8, !tbaa !10
  %15 = getelementptr i8, ptr %14, i64 -24
  %16 = load i64, ptr %15, align 8
  %17 = getelementptr inbounds i8, ptr %13, i64 %16
  %18 = getelementptr inbounds nuw i8, ptr %17, i64 240
  %19 = load ptr, ptr %18, align 8, !tbaa !47
  %.not.i.i.i = icmp eq ptr %19, null
  br i1 %.not.i.i.i, label %20, label %_ZSt13__check_facetISt5ctypeIcEERKT_PS3_.exit.i.i

20:                                               ; preds = %4
  tail call void @_ZSt16__throw_bad_castv() #36
  unreachable

_ZSt13__check_facetISt5ctypeIcEERKT_PS3_.exit.i.i: ; preds = %4
  %21 = getelementptr inbounds nuw i8, ptr %19, i64 56
  %22 = load i8, ptr %21, align 8, !tbaa !63
  %.not.i1.i.i = icmp eq i8 %22, 0
  br i1 %.not.i1.i.i, label %26, label %23

23:                                               ; preds = %_ZSt13__check_facetISt5ctypeIcEERKT_PS3_.exit.i.i
  %24 = getelementptr inbounds nuw i8, ptr %19, i64 67
  %25 = load i8, ptr %24, align 1, !tbaa !43
  br label %_ZSt4endlIcSt11char_traitsIcEERSt13basic_ostreamIT_T0_ES6_.exit

26:                                               ; preds = %_ZSt13__check_facetISt5ctypeIcEERKT_PS3_.exit.i.i
  tail call void @_ZNKSt5ctypeIcE13_M_widen_initEv(ptr noundef nonnull align 8 dereferenceable(570) %19)
  %27 = load ptr, ptr %19, align 8, !tbaa !10
  %28 = getelementptr inbounds nuw i8, ptr %27, i64 48
  %29 = load ptr, ptr %28, align 8
  %30 = tail call noundef signext i8 %29(ptr noundef nonnull align 8 dereferenceable(570) %19, i8 noundef signext 10)
  br label %_ZSt4endlIcSt11char_traitsIcEERSt13basic_ostreamIT_T0_ES6_.exit

_ZSt4endlIcSt11char_traitsIcEERSt13basic_ostreamIT_T0_ES6_.exit: ; preds = %23, %26
  %.0.i.i.i = phi i8 [ %25, %23 ], [ %30, %26 ]
  %31 = tail call noundef nonnull align 8 dereferenceable(8) ptr @_ZNSo3putEc(ptr noundef nonnull align 8 dereferenceable(8) %13, i8 noundef signext %.0.i.i.i)
  %32 = tail call noundef nonnull align 8 dereferenceable(8) ptr @_ZNSo5flushEv(ptr noundef nonnull align 8 dereferenceable(8) %31)
  ret void
}